target datalayout = "e-m:e-p270:32:32-p271:32:32-p272:64:64-i64:64-i128:128-f80:128-n8:16:32:64-S128"
target triple = "x86_64-pc-linux-gnu"

%struct.archive_string = type { ptr, i64, i64 }
%struct.archive_write_filter = type { i64, ptr, ptr, ptr, ptr, ptr, ptr, ptr, ptr, ptr, ptr, i32, i32, i32, i32 }
%struct.private_uuencode = type { i32, %struct.archive_string, %struct.archive_string, i64, i64, [45 x i8] }

@.str.4 = private unnamed_addr constant [5 x i8] c"mode\00", align 1
@.str.5 = private unnamed_addr constant [34 x i8] c"mode option requires octal digits\00", align 1
@.str.6 = private unnamed_addr constant [5 x i8] c"name\00", align 1
@.str.7 = private unnamed_addr constant [30 x i8] c"name option requires a string\00", align 1

; Function Attrs: nounwind uwtable
define internal i64 @atol8(ptr noundef %0, i64 noundef %1) #0 {
  %3 = alloca ptr, align 8
  %4 = alloca i64, align 8
  %5 = alloca i64, align 8
  %6 = alloca i32, align 4
  store ptr %0, ptr %3, align 8, !tbaa !40
  store i64 %1, ptr %4, align 8, !tbaa !33
  call void @llvm.lifetime.start.p0(i64 8, ptr %5) #7
  call void @llvm.lifetime.start.p0(i64 4, ptr %6) #7
  store i64 0, ptr %5, align 8, !tbaa !33
  br label %7

7:                                                ; preds = %27, %2
  %8 = load i64, ptr %4, align 8, !tbaa !33
  %9 = add i64 %8, -1
  store i64 %9, ptr %4, align 8, !tbaa !33
  %10 = icmp ugt i64 %8, 0
  br i1 %10, label %11, label %36

11:                                               ; preds = %7
  %12 = load ptr, ptr %3, align 8, !tbaa !40
  %13 = load i8, ptr %12, align 1, !tbaa !43
  %14 = sext i8 %13 to i32
  %15 = icmp sge i32 %14, 48
  br i1 %15, label %16, label %26

16:                                               ; preds = %11
  %17 = load ptr, ptr %3, align 8, !tbaa !40
  %18 = load i8, ptr %17, align 1, !tbaa !43
  %19 = sext i8 %18 to i32
  %20 = icmp sle i32 %19, 55
  br i1 %20, label %21, label %26

21:                                               ; preds = %16
  %22 = load ptr, ptr %3, align 8, !tbaa !40
  %23 = load i8, ptr %22, align 1, !tbaa !43
  %24 = sext i8 %23 to i32
  %25 = sub nsw i32 %24, 48
  store i32 %25, ptr %6, align 4, !tbaa !13
  br label %27

26:                                               ; preds = %16, %11
  br label %36

27:                                               ; preds = %21
  %28 = load ptr, ptr %3, align 8, !tbaa !40
  %29 = getelementptr inbounds nuw i8, ptr %28, i32 1
  store ptr %29, ptr %3, align 8, !tbaa !40
  %30 = load i64, ptr %5, align 8, !tbaa !33
  %31 = shl i64 %30, 3
  store i64 %31, ptr %5, align 8, !tbaa !33
  %32 = load i32, ptr %6, align 4, !tbaa !13
  %33 = sext i32 %32 to i64
  %34 = load i64, ptr %5, align 8, !tbaa !33
  %35 = or i64 %34, %33
  store i64 %35, ptr %5, align 8, !tbaa !33
  br label %7, !llvm.loop !51

36:                                               ; preds = %26, %7
  %37 = load i64, ptr %5, align 8, !tbaa !33
  call void @llvm.lifetime.end.p0(i64 4, ptr %6) #7
  call void @llvm.lifetime.end.p0(i64 8, ptr %5) #7
  ret i64 %37
}

; Function Attrs: nounwind uwtable
define internal i32 @archive_filter_uuencode_options(ptr noundef %0, ptr noundef %1, ptr noundef %2) #0 {
  %4 = alloca i32, align 4
  %5 = alloca ptr, align 8
  %6 = alloca ptr, align 8
  %7 = alloca ptr, align 8
  %8 = alloca ptr, align 8
  %9 = alloca i32, align 4
  store ptr %0, ptr %5, align 8, !tbaa !11
  store ptr %1, ptr %6, align 8, !tbaa !40
  store ptr %2, ptr %7, align 8, !tbaa !40
  call void @llvm.lifetime.start.p0(i64 8, ptr %8) #7
  %10 = load ptr, ptr %5, align 8, !tbaa !11
  %11 = getelementptr inbounds nuw %struct.archive_write_filter, ptr %10, i32 0, i32 9
  %12 = load ptr, ptr %11, align 8, !tbaa !25
  store ptr %12, ptr %8, align 8, !tbaa !15
  %13 = load ptr, ptr %6, align 8, !tbaa !40
  %14 = call i32 @strcmp(ptr noundef %13, ptr noundef @.str.4) #9
  %15 = icmp eq i32 %14, 0
  br i1 %15, label %16, label %32

16:                                               ; preds = %3
  %17 = load ptr, ptr %7, align 8, !tbaa !40
  %18 = icmp eq ptr %17, null
  br i1 %18, label %19, label %23

19:                                               ; preds = %16
  %20 = load ptr, ptr %5, align 8, !tbaa !11
  %21 = getelementptr inbounds nuw %struct.archive_write_filter, ptr %20, i32 0, i32 1
  %22 = load ptr, ptr %21, align 8, !tbaa !17
  call void (ptr, i32, ptr, ...) @archive_set_error(ptr noundef %22, i32 noundef -1, ptr noundef @.str.5)
  store i32 -25, ptr %4, align 4
  store i32 1, ptr %9, align 4
  br label %61

23:                                               ; preds = %16
  %24 = load ptr, ptr %7, align 8, !tbaa !40
  %25 = load ptr, ptr %7, align 8, !tbaa !40
  %26 = call i64 @strlen(ptr noundef %25) #9
  %27 = call i64 @atol8(ptr noundef %24, i64 noundef %26)
  %28 = trunc i64 %27 to i32
  %29 = and i32 %28, 511
  %30 = load ptr, ptr %8, align 8, !tbaa !15
  %31 = getelementptr inbounds nuw %struct.private_uuencode, ptr %30, i32 0, i32 0
  store i32 %29, ptr %31, align 8, !tbaa !24
  store i32 0, ptr %4, align 4
  store i32 1, ptr %9, align 4
  br label %61

32:                                               ; preds = %3
  %33 = load ptr, ptr %6, align 8, !tbaa !40
  %34 = call i32 @strcmp(ptr noundef %33, ptr noundef @.str.6) #9
  %35 = icmp eq i32 %34, 0
  br i1 %35, label %36, label %59

36:                                               ; preds = %32
  %37 = load ptr, ptr %7, align 8, !tbaa !40
  %38 = icmp eq ptr %37, null
  br i1 %38, label %39, label %43

39:                                               ; preds = %36
  %40 = load ptr, ptr %5, align 8, !tbaa !11
  %41 = getelementptr inbounds nuw %struct.archive_write_filter, ptr %40, i32 0, i32 1
  %42 = load ptr, ptr %41, align 8, !tbaa !17
  call void (ptr, i32, ptr, ...) @archive_set_error(ptr noundef %42, i32 noundef -1, ptr noundef @.str.7)
  store i32 -25, ptr %4, align 4
  store i32 1, ptr %9, align 4
  br label %61

43:                                               ; preds = %36
  %44 = load ptr, ptr %8, align 8, !tbaa !15
  %45 = getelementptr inbounds nuw %struct.private_uuencode, ptr %44, i32 0, i32 1
  %46 = getelementptr inbounds nuw %struct.archive_string, ptr %45, i32 0, i32 1
  store i64 0, ptr %46, align 8, !tbaa !21
  %47 = load ptr, ptr %8, align 8, !tbaa !15
  %48 = getelementptr inbounds nuw %struct.private_uuencode, ptr %47, i32 0, i32 1
  %49 = load ptr, ptr %7, align 8, !tbaa !40
  %50 = load ptr, ptr %7, align 8, !tbaa !40
  %51 = icmp eq ptr %50, null
  br i1 %51, label %52, label %53

52:                                               ; preds = %43
  br label %56

53:                                               ; preds = %43
  %54 = load ptr, ptr %7, align 8, !tbaa !40
  %55 = call i64 @strlen(ptr noundef %54) #9
  br label %56

56:                                               ; preds = %53, %52
  %57 = phi i64 [ 0, %52 ], [ %55, %53 ]
  %58 = call ptr @archive_strncat(ptr noundef %48, ptr noundef %49, i64 noundef %57)
  store i32 0, ptr %4, align 4
  store i32 1, ptr %9, align 4
  br label %61

59:                                               ; preds = %32
  br label %60

60:                                               ; preds = %59
  store i32 -20, ptr %4, align 4
  store i32 1, ptr %9, align 4
  br label %61

61:                                               ; preds = %60, %56, %39, %23, %19
  call void @llvm.lifetime.end.p0(i64 8, ptr %8) #7
  %62 = load i32, ptr %4, align 4
  ret i32 %62
}