; Function Attrs: nounwind uwtable
define internal range(i32 -25, 1) i32 @archive_filter_uuencode_options(ptr noundef readonly captures(none) %0, ptr noundef readonly captures(none) %1, ptr noundef %2) #0 {
  %4 = getelementptr inbounds nuw i8, ptr %0, i64 72
  %5 = load ptr, ptr %4, align 8, !tbaa !17
  %6 = tail call i32 @strcmp(ptr noundef nonnull dereferenceable(1) %1, ptr noundef nonnull dereferenceable(5) @.str.4) #8
  %7 = icmp eq i32 %6, 0
  br i1 %7, label %8, label %24

8:                                                ; preds = %3
  %9 = icmp eq ptr %2, null
  br i1 %9, label %10, label %13

10:                                               ; preds = %8
  %11 = getelementptr inbounds nuw i8, ptr %0, i64 8
  %12 = load ptr, ptr %11, align 8, !tbaa !4
  tail call void (ptr, i32, ptr, ...) @archive_set_error(ptr noundef %12, i32 noundef -1, ptr noundef nonnull @.str.5) #6
  br label %37

13:                                               ; preds = %8
  %14 = tail call i64 @strlen(ptr noundef nonnull dereferenceable(1) %2) #8
  %.not11.i = icmp eq i64 %14, 0
  br i1 %.not11.i, label %atol8.exit, label %.lr.ph.i

.lr.ph.i:                                         ; preds = %13, %17
  %.in.i = phi i64 [ %18, %17 ], [ %14, %13 ]
  %.013.i = phi ptr [ %20, %17 ], [ %2, %13 ]
  %.0812.i = phi i32 [ %22, %17 ], [ 0, %13 ]
  %15 = load i8, ptr %.013.i, align 1, !tbaa !31
  %16 = and i8 %15, -8
  %or.cond.i = icmp eq i8 %16, 48
  br i1 %or.cond.i, label %17, label %atol8.exit.loopexit

17:                                               ; preds = %.lr.ph.i
  %18 = add i64 %.in.i, -1
  %narrow.i = add nsw i8 %15, -48
  %19 = zext nneg i8 %narrow.i to i32
  %20 = getelementptr inbounds nuw i8, ptr %.013.i, i64 1
  %21 = shl i32 %.0812.i, 3
  %22 = or disjoint i32 %21, %19
  %.not.i = icmp eq i64 %18, 0
  br i1 %.not.i, label %atol8.exit.loopexit, label %.lr.ph.i, !llvm.loop !32

atol8.exit.loopexit:                              ; preds = %17, %.lr.ph.i
  %.08.lcssa.i.ph = phi i32 [ %.0812.i, %.lr.ph.i ], [ %22, %17 ]
  %23 = and i32 %.08.lcssa.i.ph, 511
  br label %atol8.exit

atol8.exit:                                       ; preds = %atol8.exit.loopexit, %13
  %.08.lcssa.i = phi i32 [ 0, %13 ], [ %23, %atol8.exit.loopexit ]
  store i32 %.08.lcssa.i, ptr %5, align 8, !tbaa !14
  br label %37

24:                                               ; preds = %3
  %25 = tail call i32 @strcmp(ptr noundef nonnull dereferenceable(1) %1, ptr noundef nonnull dereferenceable(5) @.str.6) #8
  %26 = icmp eq i32 %25, 0
  br i1 %26, label %27, label %37

27:                                               ; preds = %24
  %28 = icmp eq ptr %2, null
  br i1 %28, label %29, label %32

29:                                               ; preds = %27
  %30 = getelementptr inbounds nuw i8, ptr %0, i64 8
  %31 = load ptr, ptr %30, align 8, !tbaa !4
  tail call void (ptr, i32, ptr, ...) @archive_set_error(ptr noundef %31, i32 noundef -1, ptr noundef nonnull @.str.7) #6
  br label %37

32:                                               ; preds = %27
  %33 = getelementptr inbounds nuw i8, ptr %5, i64 8
  %34 = getelementptr inbounds nuw i8, ptr %5, i64 16
  store i64 0, ptr %34, align 8, !tbaa !34
  %35 = tail call i64 @strlen(ptr noundef nonnull dereferenceable(1) %2) #8
  %36 = tail call ptr @archive_strncat(ptr noundef nonnull %33, ptr noundef nonnull %2, i64 noundef %35) #6
  br label %37

37:                                               ; preds = %24, %32, %29, %atol8.exit, %10
  %.0 = phi i32 [ -25, %10 ], [ 0, %atol8.exit ], [ -25, %29 ], [ 0, %32 ], [ -20, %24 ]
  ret i32 %.0
}